; ModuleID = 'source-C-CXX/36/379.c'
source_filename = "source-C-CXX/36/379.c"
target datalayout = "e-m:e-p270:32:32-p271:32:32-p272:64:64-i64:64-f80:128-n8:16:32:64-S128"
target triple = "x86_64-pc-linux-gnu"

@.str = private unnamed_addr constant [3 x i8] c"%d\00", align 1
@.str.1 = private unnamed_addr constant [3 x i8] c"%s\00", align 1
@.str.2 = private unnamed_addr constant [4 x i8] c"%c\0A\00", align 1
@str = private unnamed_addr constant [3 x i8] c"no\00", align 1

; Function Attrs: nofree nounwind sspstrong uwtable
define dso_local i32 @main() local_unnamed_addr #0 {
  %1 = alloca i32, align 4
  %2 = alloca [100 x [100 x i8]], align 16
  %3 = bitcast i32* %1 to i8*
  call void @llvm.lifetime.start.p0i8(i64 4, i8* nonnull %3) #4
  %4 = getelementptr inbounds [100 x [100 x i8]], [100 x [100 x i8]]* %2, i64 0, i64 0, i64 0
  call void @llvm.lifetime.start.p0i8(i64 10000, i8* nonnull %4) #4
  %5 = call i32 (i8*, ...) @__isoc99_scanf(i8* getelementptr inbounds ([3 x i8], [3 x i8]* @.str, i64 0, i64 0), i32* nonnull %1)
  %6 = load i32, i32* %1, align 4, !tbaa !5
  %7 = icmp sgt i32 %6, 0
  br i1 %7, label %10, label %62

8:                                                ; preds = %10
  %9 = icmp sgt i32 %15, 0
  br i1 %9, label %18, label %62

10:                                               ; preds = %0, %10
  %11 = phi i64 [ %14, %10 ], [ 0, %0 ]
  %12 = getelementptr inbounds [100 x [100 x i8]], [100 x [100 x i8]]* %2, i64 0, i64 %11, i64 0
  %13 = call i32 (i8*, ...) @__isoc99_scanf(i8* getelementptr inbounds ([3 x i8], [3 x i8]* @.str.1, i64 0, i64 0), i8* nonnull %12)
  %14 = add nuw nsw i64 %11, 1
  %15 = load i32, i32* %1, align 4, !tbaa !5
  %16 = sext i32 %15 to i64
  %17 = icmp slt i64 %14, %16
  br i1 %17, label %10, label %8, !llvm.loop !9

18:                                               ; preds = %8, %57
  %19 = phi i64 [ %58, %57 ], [ 0, %8 ]
  %20 = getelementptr inbounds [100 x [100 x i8]], [100 x [100 x i8]]* %2, i64 0, i64 %19, i64 0
  %21 = load i8, i8* %20, align 4, !tbaa !11
  %22 = icmp eq i8 %21, 0
  br i1 %22, label %55, label %23

23:                                               ; preds = %18, %51
  %24 = phi i8 [ %52, %51 ], [ %21, %18 ]
  %25 = phi i8 [ %49, %51 ], [ %21, %18 ]
  %26 = phi i8* [ %48, %51 ], [ %20, %18 ]
  %27 = phi i32 [ %47, %51 ], [ 0, %18 ]
  %28 = icmp eq i8 %24, 0
  br i1 %28, label %46, label %29

29:                                               ; preds = %23, %29
  %30 = phi i8 [ %37, %29 ], [ %24, %23 ]
  %31 = phi i8* [ %36, %29 ], [ %20, %23 ]
  %32 = phi i32 [ %35, %29 ], [ 0, %23 ]
  %33 = icmp eq i8 %25, %30
  %34 = zext i1 %33 to i32
  %35 = add nuw nsw i32 %32, %34
  %36 = getelementptr inbounds i8, i8* %31, i64 1
  %37 = load i8, i8* %36, align 1, !tbaa !11
  %38 = icmp eq i8 %37, 0
  br i1 %38, label %39, label %29, !llvm.loop !12

39:                                               ; preds = %29
  %40 = icmp eq i32 %35, 1
  %41 = icmp eq i32 %27, 0
  %42 = select i1 %40, i1 %41, i1 false
  br i1 %42, label %43, label %46

43:                                               ; preds = %39
  %44 = sext i8 %25 to i32
  %45 = call i32 (i8*, ...) @printf(i8* nonnull dereferenceable(1) getelementptr inbounds ([4 x i8], [4 x i8]* @.str.2, i64 0, i64 0), i32 %44)
  br label %46

46:                                               ; preds = %23, %39, %43
  %47 = phi i32 [ 1, %43 ], [ %27, %39 ], [ %27, %23 ]
  %48 = getelementptr inbounds i8, i8* %26, i64 1
  %49 = load i8, i8* %48, align 1, !tbaa !11
  %50 = icmp eq i8 %49, 0
  br i1 %50, label %53, label %51, !llvm.loop !13

51:                                               ; preds = %46
  %52 = load i8, i8* %20, align 4, !tbaa !11
  br label %23

53:                                               ; preds = %46
  %54 = icmp eq i32 %47, 0
  br i1 %54, label %55, label %57

55:                                               ; preds = %18, %53
  %56 = call i32 @puts(i8* nonnull dereferenceable(1) getelementptr inbounds ([3 x i8], [3 x i8]* @str, i64 0, i64 0))
  br label %57

57:                                               ; preds = %53, %55
  %58 = add nuw nsw i64 %19, 1
  %59 = load i32, i32* %1, align 4, !tbaa !5
  %60 = sext i32 %59 to i64
  %61 = icmp slt i64 %58, %60
  br i1 %61, label %18, label %62, !llvm.loop !14

62:                                               ; preds = %57, %0, %8
  call void @llvm.lifetime.end.p0i8(i64 10000, i8* nonnull %4) #4
  call void @llvm.lifetime.end.p0i8(i64 4, i8* nonnull %3) #4
  ret i32 0
}

; Function Attrs: argmemonly mustprogress nofree nosync nounwind willreturn
declare void @llvm.lifetime.start.p0i8(i64 immarg, i8* nocapture) #1

; Function Attrs: nofree nounwind
declare noundef i32 @__isoc99_scanf(i8* nocapture noundef readonly, ...) local_unnamed_addr #2

; Function Attrs: nofree nounwind
declare noundef i32 @printf(i8* nocapture noundef readonly, ...) local_unnamed_addr #2

; Function Attrs: argmemonly mustprogress nofree nosync nounwind willreturn
declare void @llvm.lifetime.end.p0i8(i64 immarg, i8* nocapture) #1

; Function Attrs: nofree nounwind
declare noundef i32 @puts(i8* nocapture noundef readonly) local_unnamed_addr #3


!llvm.module.flags = !{!0, !1, !2, !3}
!llvm.ident = !{!4}

!0 = !{i32 1, !"wchar_size", i32 4}
!1 = !{i32 7, !"PIC Level", i32 2}
!2 = !{i32 7, !"PIE Level", i32 2}
!3 = !{i32 7, !"uwtable", i32 1}
!4 = !{!"clang version 13.0.0"}
!5 = !{!6, !6, i64 0}
!6 = !{!"int", !7, i64 0}
!7 = !{!"omnipotent char", !8, i64 0}
!8 = !{!"Simple C/C++ TBAA"}
!9 = distinct !{!9, !10}
!10 = !{!"llvm.loop.mustprogress"}
!11 = !{!7, !7, i64 0}
!12 = distinct !{!12, !10}
!13 = distinct !{!13, !10}
!14 = distinct !{!14, !10}
